target datalayout = "e-m:e-p270:32:32-p271:32:32-p272:64:64-i64:64-i128:128-f80:128-n8:16:32:64-S128"
target triple = "x86_64-pc-linux-gnu"

%struct.H264ParamSets = type { [32 x ptr], [256 x ptr], ptr, ptr, [2 x i32] }

; Function Attrs: nounwind uwtable
define void @ff_h264_ps_uninit(ptr noundef %0) #0 {
  %2 = alloca ptr, align 8
  %3 = alloca i32, align 4
  store ptr %0, ptr %2, align 8, !tbaa !4
  call void @llvm.lifetime.start.p0(i64 4, ptr %3) #8
  store i32 0, ptr %3, align 4, !tbaa !9
  br label %4

4:                                                ; preds = %13, %1
  %5 = load i32, ptr %3, align 4, !tbaa !9
  %6 = icmp slt i32 %5, 32
  br i1 %6, label %7, label %16

7:                                                ; preds = %4
  %8 = load ptr, ptr %2, align 8, !tbaa !4
  %9 = getelementptr inbounds nuw %struct.H264ParamSets, ptr %8, i32 0, i32 0
  %10 = load i32, ptr %3, align 4, !tbaa !9
  %11 = sext i32 %10 to i64
  %12 = getelementptr inbounds [32 x ptr], ptr %9, i64 0, i64 %11
  call void @av_refstruct_unref(ptr noundef %12)
  br label %13

13:                                               ; preds = %7
  %14 = load i32, ptr %3, align 4, !tbaa !9
  %15 = add nsw i32 %14, 1
  store i32 %15, ptr %3, align 4, !tbaa !9
  br label %4, !llvm.loop !11

16:                                               ; preds = %4
  store i32 0, ptr %3, align 4, !tbaa !9
  br label %17

17:                                               ; preds = %26, %16
  %18 = load i32, ptr %3, align 4, !tbaa !9
  %19 = icmp slt i32 %18, 256
  br i1 %19, label %20, label %29

20:                                               ; preds = %17
  %21 = load ptr, ptr %2, align 8, !tbaa !4
  %22 = getelementptr inbounds nuw %struct.H264ParamSets, ptr %21, i32 0, i32 1
  %23 = load i32, ptr %3, align 4, !tbaa !9
  %24 = sext i32 %23 to i64
  %25 = getelementptr inbounds [256 x ptr], ptr %22, i64 0, i64 %24
  call void @av_refstruct_unref(ptr noundef %25)
  br label %26

26:                                               ; preds = %20
  %27 = load i32, ptr %3, align 4, !tbaa !9
  %28 = add nsw i32 %27, 1
  store i32 %28, ptr %3, align 4, !tbaa !9
  br label %17, !llvm.loop !13

29:                                               ; preds = %17
  %30 = load ptr, ptr %2, align 8, !tbaa !4
  %31 = getelementptr inbounds nuw %struct.H264ParamSets, ptr %30, i32 0, i32 2
  call void @av_refstruct_unref(ptr noundef %31)
  %32 = load ptr, ptr %2, align 8, !tbaa !4
  %33 = getelementptr inbounds nuw %struct.H264ParamSets, ptr %32, i32 0, i32 3
  store ptr null, ptr %33, align 8, !tbaa !14
  call void @llvm.lifetime.end.p0(i64 4, ptr %3) #8
  ret void
}