; Function Attrs: nounwind uwtable
define void @ff_h264_ps_uninit(ptr noundef %0) local_unnamed_addr #0 {
  br label %3

.preheader:                                       ; preds = %3
  %2 = getelementptr inbounds nuw i8, ptr %0, i64 256
  br label %5

3:                                                ; preds = %1, %3
  %indvars.iv = phi i64 [ 0, %1 ], [ %indvars.iv.next, %3 ]
  %4 = getelementptr inbounds nuw [32 x ptr], ptr %0, i64 0, i64 %indvars.iv
  tail call void @av_refstruct_unref(ptr noundef %4) #11
  %indvars.iv.next = add nuw nsw i64 %indvars.iv, 1
  %exitcond.not = icmp eq i64 %indvars.iv.next, 32
  br i1 %exitcond.not, label %.preheader, label %3, !llvm.loop !4

5:                                                ; preds = %.preheader, %5
  %indvars.iv12 = phi i64 [ 0, %.preheader ], [ %indvars.iv.next13, %5 ]
  %6 = getelementptr inbounds nuw [256 x ptr], ptr %2, i64 0, i64 %indvars.iv12
  tail call void @av_refstruct_unref(ptr noundef nonnull %6) #11
  %indvars.iv.next13 = add nuw nsw i64 %indvars.iv12, 1
  %exitcond15.not = icmp eq i64 %indvars.iv.next13, 256
  br i1 %exitcond15.not, label %7, label %5, !llvm.loop !6

7:                                                ; preds = %5
  %8 = getelementptr inbounds nuw i8, ptr %0, i64 2304
  tail call void @av_refstruct_unref(ptr noundef nonnull %8) #11
  %9 = getelementptr inbounds nuw i8, ptr %0, i64 2312
  store ptr null, ptr %9, align 8, !tbaa !7
  ret void
}